; Function Attrs: mustprogress nounwind uwtable
define void @_ZN9ThreadMgrD2Ev(ptr nocapture noundef nonnull align 8 dereferenceable(72) %0) unnamed_addr #4 align 2 personality ptr @__gxx_personality_v0 {
  %2 = getelementptr inbounds nuw i8, ptr %0, i64 40
  %3 = load ptr, ptr %2, align 8
  %.not.i.i.i = icmp eq ptr %3, null
  br i1 %.not.i.i.i, label %_ZNSt6vectorIiSaIiEED2Ev.exit, label %4

4:                                                ; preds = %1
  %5 = getelementptr inbounds i8, ptr %0, i64 56
  %6 = load ptr, ptr %5, align 8
  %7 = ptrtoint ptr %6 to i64
  %8 = ptrtoint ptr %3 to i64
  %9 = sub i64 %7, %8
  tail call void @_ZdlPvm(ptr noundef nonnull %3, i64 noundef %9) #16
  br label %_ZNSt6vectorIiSaIiEED2Ev.exit

_ZNSt6vectorIiSaIiEED2Ev.exit:                    ; preds = %1, %4
  %10 = load ptr, ptr %0, align 8
  %.not.i.i.i1 = icmp eq ptr %10, null
  br i1 %.not.i.i.i1, label %_ZNSt6vectorIbSaIbEED2Ev.exit, label %11

11:                                               ; preds = %_ZNSt6vectorIiSaIiEED2Ev.exit
  %12 = getelementptr inbounds nuw i8, ptr %0, i64 32
  %13 = load ptr, ptr %12, align 8
  %14 = ptrtoint ptr %13 to i64
  %15 = ptrtoint ptr %10 to i64
  %16 = sub i64 %14, %15
  %17 = ashr exact i64 %16, 3
  %18 = sub nsw i64 0, %17
  %19 = getelementptr inbounds i64, ptr %13, i64 %18
  tail call void @_ZdlPvm(ptr noundef %19, i64 noundef %16) #16
  store ptr null, ptr %0, align 8
  %.sroa.2.0..sroa_idx.i.i.i.i = getelementptr inbounds i8, ptr %0, i64 8
  store i32 0, ptr %.sroa.2.0..sroa_idx.i.i.i.i, align 8
  %.sroa.31.0..sroa_idx.i.i.i.i = getelementptr inbounds i8, ptr %0, i64 16
  store ptr null, ptr %.sroa.31.0..sroa_idx.i.i.i.i, align 8
  %.sroa.4.0..sroa_idx.i.i.i.i = getelementptr inbounds i8, ptr %0, i64 24
  store i32 0, ptr %.sroa.4.0..sroa_idx.i.i.i.i, align 8
  store ptr null, ptr %12, align 8
  br label %_ZNSt6vectorIbSaIbEED2Ev.exit

_ZNSt6vectorIbSaIbEED2Ev.exit:                    ; preds = %_ZNSt6vectorIiSaIiEED2Ev.exit, %11
  ret void
}